target datalayout = "e-m:e-p270:32:32-p271:32:32-p272:64:64-i64:64-i128:128-f80:128-n8:16:32:64-S128"
target triple = "x86_64-pc-linux-gnu"

%struct.SUNStepper_ = type { ptr, ptr, ptr, i32 }
%struct.SUNStepper_Ops_ = type { ptr, ptr, ptr, ptr, ptr, ptr, ptr, ptr }

; Function Attrs: nounwind uwtable
define i32 @SUNStepper_OneStep(ptr noundef %0, double noundef %1, ptr noundef %2, ptr noundef %3) #0 {
  %5 = alloca i32, align 4
  %6 = alloca ptr, align 8
  %7 = alloca double, align 8
  %8 = alloca ptr, align 8
  %9 = alloca ptr, align 8
  %10 = alloca ptr, align 8
  %11 = alloca i32, align 4
  store ptr %0, ptr %6, align 8, !tbaa !10
  store double %1, ptr %7, align 8, !tbaa !29
  store ptr %2, ptr %8, align 8, !tbaa !31
  store ptr %3, ptr %9, align 8, !tbaa !33
  call void @llvm.lifetime.start.p0(i64 8, ptr %10) #4
  %12 = load ptr, ptr %6, align 8, !tbaa !10
  %13 = getelementptr inbounds nuw %struct.SUNStepper_, ptr %12, i32 0, i32 2
  %14 = load ptr, ptr %13, align 8, !tbaa !16
  store ptr %14, ptr %10, align 8, !tbaa !3
  %15 = load ptr, ptr %6, align 8, !tbaa !10
  %16 = getelementptr inbounds nuw %struct.SUNStepper_, ptr %15, i32 0, i32 1
  %17 = load ptr, ptr %16, align 8, !tbaa !18
  %18 = getelementptr inbounds nuw %struct.SUNStepper_Ops_, ptr %17, i32 0, i32 1
  %19 = load ptr, ptr %18, align 8, !tbaa !21
  %20 = icmp ne ptr %19, null
  br i1 %20, label %21, label %32

21:                                               ; preds = %4
  %22 = load ptr, ptr %6, align 8, !tbaa !10
  %23 = getelementptr inbounds nuw %struct.SUNStepper_, ptr %22, i32 0, i32 1
  %24 = load ptr, ptr %23, align 8, !tbaa !18
  %25 = getelementptr inbounds nuw %struct.SUNStepper_Ops_, ptr %24, i32 0, i32 1
  %26 = load ptr, ptr %25, align 8, !tbaa !21
  %27 = load ptr, ptr %6, align 8, !tbaa !10
  %28 = load double, ptr %7, align 8, !tbaa !29
  %29 = load ptr, ptr %8, align 8, !tbaa !31
  %30 = load ptr, ptr %9, align 8, !tbaa !33
  %31 = call i32 %26(ptr noundef %27, double noundef %28, ptr noundef %29, ptr noundef %30)
  store i32 %31, ptr %5, align 4
  store i32 1, ptr %11, align 4
  br label %33

32:                                               ; preds = %4
  store i32 -9985, ptr %5, align 4
  store i32 1, ptr %11, align 4
  br label %33

33:                                               ; preds = %32, %21
  call void @llvm.lifetime.end.p0(i64 8, ptr %10) #4
  %34 = load i32, ptr %5, align 4
  ret i32 %34
}