; Function Attrs: nounwind uwtable
define i32 @SUNStepper_OneStep(ptr noundef %0, double noundef %1, ptr noundef %2, ptr noundef %3) local_unnamed_addr #2 {
  %5 = getelementptr inbounds nuw i8, ptr %0, i64 8
  %6 = load ptr, ptr %5, align 8, !tbaa !13
  %7 = getelementptr inbounds nuw i8, ptr %6, i64 8
  %8 = load ptr, ptr %7, align 8, !tbaa !19
  %.not = icmp eq ptr %8, null
  br i1 %.not, label %11, label %9

9:                                                ; preds = %4
  %10 = tail call i32 %8(ptr noundef nonnull %0, double noundef %1, ptr noundef %2, ptr noundef %3) #9
  br label %11

11:                                               ; preds = %4, %9
  %.0 = phi i32 [ %10, %9 ], [ -9985, %4 ]
  ret i32 %.0
}